target datalayout = "e-m:e-p270:32:32-p271:32:32-p272:64:64-i64:64-i128:128-f80:128-n8:16:32:64-S128"
target triple = "x86_64-pc-linux-gnu"

%struct.lzh_stream = type { ptr, i32, i64, ptr, i32, i64, ptr }
%struct.lzh_br = type { i64, i32 }

; Function Attrs: nounwind uwtable
define internal i32 @lzh_br_fillup(ptr noundef %0, ptr noundef %1) #0 {
  %3 = alloca i32, align 4
  %4 = alloca ptr, align 8
  %5 = alloca ptr, align 8
  %6 = alloca i32, align 4
  %7 = alloca i32, align 4
  %8 = alloca i32, align 4
  store ptr %0, ptr %4, align 8, !tbaa !144
  store ptr %1, ptr %5, align 8, !tbaa !176
  call void @llvm.lifetime.start.p0(i64 4, ptr %6) #11
  %9 = load ptr, ptr %5, align 8, !tbaa !176
  %10 = getelementptr inbounds nuw %struct.lzh_br, ptr %9, i32 0, i32 1
  %11 = load i32, ptr %10, align 8, !tbaa !178
  %12 = sext i32 %11 to i64
  %13 = sub i64 64, %12
  %14 = trunc i64 %13 to i32
  store i32 %14, ptr %6, align 4, !tbaa !11
  br label %15

15:                                               ; preds = %281, %2
  call void @llvm.lifetime.start.p0(i64 4, ptr %7) #11
  %16 = load i32, ptr %6, align 4, !tbaa !11
  %17 = ashr i32 %16, 3
  store i32 %17, ptr %7, align 4, !tbaa !11
  %18 = load ptr, ptr %4, align 8, !tbaa !144
  %19 = getelementptr inbounds nuw %struct.lzh_stream, ptr %18, i32 0, i32 1
  %20 = load i32, ptr %19, align 8, !tbaa !165
  %21 = load i32, ptr %7, align 4, !tbaa !11
  %22 = icmp sge i32 %20, %21
  br i1 %22, label %23, label %249

23:                                               ; preds = %15
  %24 = load i32, ptr %7, align 4, !tbaa !11
  switch i32 %24, label %247 [
    i32 8, label %25
    i32 7, label %106
    i32 6, label %180
    i32 0, label %246
  ]

25:                                               ; preds = %23
  %26 = load ptr, ptr %4, align 8, !tbaa !144
  %27 = getelementptr inbounds nuw %struct.lzh_stream, ptr %26, i32 0, i32 0
  %28 = load ptr, ptr %27, align 8, !tbaa !198
  %29 = getelementptr inbounds i8, ptr %28, i64 0
  %30 = load i8, ptr %29, align 1, !tbaa !29
  %31 = zext i8 %30 to i64
  %32 = shl i64 %31, 56
  %33 = load ptr, ptr %4, align 8, !tbaa !144
  %34 = getelementptr inbounds nuw %struct.lzh_stream, ptr %33, i32 0, i32 0
  %35 = load ptr, ptr %34, align 8, !tbaa !198
  %36 = getelementptr inbounds i8, ptr %35, i64 1
  %37 = load i8, ptr %36, align 1, !tbaa !29
  %38 = zext i8 %37 to i64
  %39 = shl i64 %38, 48
  %40 = or i64 %32, %39
  %41 = load ptr, ptr %4, align 8, !tbaa !144
  %42 = getelementptr inbounds nuw %struct.lzh_stream, ptr %41, i32 0, i32 0
  %43 = load ptr, ptr %42, align 8, !tbaa !198
  %44 = getelementptr inbounds i8, ptr %43, i64 2
  %45 = load i8, ptr %44, align 1, !tbaa !29
  %46 = zext i8 %45 to i64
  %47 = shl i64 %46, 40
  %48 = or i64 %40, %47
  %49 = load ptr, ptr %4, align 8, !tbaa !144
  %50 = getelementptr inbounds nuw %struct.lzh_stream, ptr %49, i32 0, i32 0
  %51 = load ptr, ptr %50, align 8, !tbaa !198
  %52 = getelementptr inbounds i8, ptr %51, i64 3
  %53 = load i8, ptr %52, align 1, !tbaa !29
  %54 = zext i8 %53 to i64
  %55 = shl i64 %54, 32
  %56 = or i64 %48, %55
  %57 = load ptr, ptr %4, align 8, !tbaa !144
  %58 = getelementptr inbounds nuw %struct.lzh_stream, ptr %57, i32 0, i32 0
  %59 = load ptr, ptr %58, align 8, !tbaa !198
  %60 = getelementptr inbounds i8, ptr %59, i64 4
  %61 = load i8, ptr %60, align 1, !tbaa !29
  %62 = zext i8 %61 to i32
  %63 = shl i32 %62, 24
  %64 = zext i32 %63 to i64
  %65 = or i64 %56, %64
  %66 = load ptr, ptr %4, align 8, !tbaa !144
  %67 = getelementptr inbounds nuw %struct.lzh_stream, ptr %66, i32 0, i32 0
  %68 = load ptr, ptr %67, align 8, !tbaa !198
  %69 = getelementptr inbounds i8, ptr %68, i64 5
  %70 = load i8, ptr %69, align 1, !tbaa !29
  %71 = zext i8 %70 to i32
  %72 = shl i32 %71, 16
  %73 = zext i32 %72 to i64
  %74 = or i64 %65, %73
  %75 = load ptr, ptr %4, align 8, !tbaa !144
  %76 = getelementptr inbounds nuw %struct.lzh_stream, ptr %75, i32 0, i32 0
  %77 = load ptr, ptr %76, align 8, !tbaa !198
  %78 = getelementptr inbounds i8, ptr %77, i64 6
  %79 = load i8, ptr %78, align 1, !tbaa !29
  %80 = zext i8 %79 to i32
  %81 = shl i32 %80, 8
  %82 = zext i32 %81 to i64
  %83 = or i64 %74, %82
  %84 = load ptr, ptr %4, align 8, !tbaa !144
  %85 = getelementptr inbounds nuw %struct.lzh_stream, ptr %84, i32 0, i32 0
  %86 = load ptr, ptr %85, align 8, !tbaa !198
  %87 = getelementptr inbounds i8, ptr %86, i64 7
  %88 = load i8, ptr %87, align 1, !tbaa !29
  %89 = zext i8 %88 to i32
  %90 = zext i32 %89 to i64
  %91 = or i64 %83, %90
  %92 = load ptr, ptr %5, align 8, !tbaa !176
  %93 = getelementptr inbounds nuw %struct.lzh_br, ptr %92, i32 0, i32 0
  store i64 %91, ptr %93, align 8, !tbaa !179
  %94 = load ptr, ptr %4, align 8, !tbaa !144
  %95 = getelementptr inbounds nuw %struct.lzh_stream, ptr %94, i32 0, i32 0
  %96 = load ptr, ptr %95, align 8, !tbaa !198
  %97 = getelementptr inbounds i8, ptr %96, i64 8
  store ptr %97, ptr %95, align 8, !tbaa !198
  %98 = load ptr, ptr %4, align 8, !tbaa !144
  %99 = getelementptr inbounds nuw %struct.lzh_stream, ptr %98, i32 0, i32 1
  %100 = load i32, ptr %99, align 8, !tbaa !165
  %101 = sub nsw i32 %100, 8
  store i32 %101, ptr %99, align 8, !tbaa !165
  %102 = load ptr, ptr %5, align 8, !tbaa !176
  %103 = getelementptr inbounds nuw %struct.lzh_br, ptr %102, i32 0, i32 1
  %104 = load i32, ptr %103, align 8, !tbaa !178
  %105 = add nsw i32 %104, 64
  store i32 %105, ptr %103, align 8, !tbaa !178
  store i32 1, ptr %3, align 4
  store i32 1, ptr %8, align 4
  br label %279

106:                                              ; preds = %23
  %107 = load ptr, ptr %5, align 8, !tbaa !176
  %108 = getelementptr inbounds nuw %struct.lzh_br, ptr %107, i32 0, i32 0
  %109 = load i64, ptr %108, align 8, !tbaa !179
  %110 = shl i64 %109, 56
  %111 = load ptr, ptr %4, align 8, !tbaa !144
  %112 = getelementptr inbounds nuw %struct.lzh_stream, ptr %111, i32 0, i32 0
  %113 = load ptr, ptr %112, align 8, !tbaa !198
  %114 = getelementptr inbounds i8, ptr %113, i64 0
  %115 = load i8, ptr %114, align 1, !tbaa !29
  %116 = zext i8 %115 to i64
  %117 = shl i64 %116, 48
  %118 = or i64 %110, %117
  %119 = load ptr, ptr %4, align 8, !tbaa !144
  %120 = getelementptr inbounds nuw %struct.lzh_stream, ptr %119, i32 0, i32 0
  %121 = load ptr, ptr %120, align 8, !tbaa !198
  %122 = getelementptr inbounds i8, ptr %121, i64 1
  %123 = load i8, ptr %122, align 1, !tbaa !29
  %124 = zext i8 %123 to i64
  %125 = shl i64 %124, 40
  %126 = or i64 %118, %125
  %127 = load ptr, ptr %4, align 8, !tbaa !144
  %128 = getelementptr inbounds nuw %struct.lzh_stream, ptr %127, i32 0, i32 0
  %129 = load ptr, ptr %128, align 8, !tbaa !198
  %130 = getelementptr inbounds i8, ptr %129, i64 2
  %131 = load i8, ptr %130, align 1, !tbaa !29
  %132 = zext i8 %131 to i64
  %133 = shl i64 %132, 32
  %134 = or i64 %126, %133
  %135 = load ptr, ptr %4, align 8, !tbaa !144
  %136 = getelementptr inbounds nuw %struct.lzh_stream, ptr %135, i32 0, i32 0
  %137 = load ptr, ptr %136, align 8, !tbaa !198
  %138 = getelementptr inbounds i8, ptr %137, i64 3
  %139 = load i8, ptr %138, align 1, !tbaa !29
  %140 = zext i8 %139 to i64
  %141 = shl i64 %140, 24
  %142 = or i64 %134, %141
  %143 = load ptr, ptr %4, align 8, !tbaa !144
  %144 = getelementptr inbounds nuw %struct.lzh_stream, ptr %143, i32 0, i32 0
  %145 = load ptr, ptr %144, align 8, !tbaa !198
  %146 = getelementptr inbounds i8, ptr %145, i64 4
  %147 = load i8, ptr %146, align 1, !tbaa !29
  %148 = zext i8 %147 to i64
  %149 = shl i64 %148, 16
  %150 = or i64 %142, %149
  %151 = load ptr, ptr %4, align 8, !tbaa !144
  %152 = getelementptr inbounds nuw %struct.lzh_stream, ptr %151, i32 0, i32 0
  %153 = load ptr, ptr %152, align 8, !tbaa !198
  %154 = getelementptr inbounds i8, ptr %153, i64 5
  %155 = load i8, ptr %154, align 1, !tbaa !29
  %156 = zext i8 %155 to i64
  %157 = shl i64 %156, 8
  %158 = or i64 %150, %157
  %159 = load ptr, ptr %4, align 8, !tbaa !144
  %160 = getelementptr inbounds nuw %struct.lzh_stream, ptr %159, i32 0, i32 0
  %161 = load ptr, ptr %160, align 8, !tbaa !198
  %162 = getelementptr inbounds i8, ptr %161, i64 6
  %163 = load i8, ptr %162, align 1, !tbaa !29
  %164 = zext i8 %163 to i64
  %165 = or i64 %158, %164
  %166 = load ptr, ptr %5, align 8, !tbaa !176
  %167 = getelementptr inbounds nuw %struct.lzh_br, ptr %166, i32 0, i32 0
  store i64 %165, ptr %167, align 8, !tbaa !179
  %168 = load ptr, ptr %4, align 8, !tbaa !144
  %169 = getelementptr inbounds nuw %struct.lzh_stream, ptr %168, i32 0, i32 0
  %170 = load ptr, ptr %169, align 8, !tbaa !198
  %171 = getelementptr inbounds i8, ptr %170, i64 7
  store ptr %171, ptr %169, align 8, !tbaa !198
  %172 = load ptr, ptr %4, align 8, !tbaa !144
  %173 = getelementptr inbounds nuw %struct.lzh_stream, ptr %172, i32 0, i32 1
  %174 = load i32, ptr %173, align 8, !tbaa !165
  %175 = sub nsw i32 %174, 7
  store i32 %175, ptr %173, align 8, !tbaa !165
  %176 = load ptr, ptr %5, align 8, !tbaa !176
  %177 = getelementptr inbounds nuw %struct.lzh_br, ptr %176, i32 0, i32 1
  %178 = load i32, ptr %177, align 8, !tbaa !178
  %179 = add nsw i32 %178, 56
  store i32 %179, ptr %177, align 8, !tbaa !178
  store i32 1, ptr %3, align 4
  store i32 1, ptr %8, align 4
  br label %279

180:                                              ; preds = %23
  %181 = load ptr, ptr %5, align 8, !tbaa !176
  %182 = getelementptr inbounds nuw %struct.lzh_br, ptr %181, i32 0, i32 0
  %183 = load i64, ptr %182, align 8, !tbaa !179
  %184 = shl i64 %183, 48
  %185 = load ptr, ptr %4, align 8, !tbaa !144
  %186 = getelementptr inbounds nuw %struct.lzh_stream, ptr %185, i32 0, i32 0
  %187 = load ptr, ptr %186, align 8, !tbaa !198
  %188 = getelementptr inbounds i8, ptr %187, i64 0
  %189 = load i8, ptr %188, align 1, !tbaa !29
  %190 = zext i8 %189 to i64
  %191 = shl i64 %190, 40
  %192 = or i64 %184, %191
  %193 = load ptr, ptr %4, align 8, !tbaa !144
  %194 = getelementptr inbounds nuw %struct.lzh_stream, ptr %193, i32 0, i32 0
  %195 = load ptr, ptr %194, align 8, !tbaa !198
  %196 = getelementptr inbounds i8, ptr %195, i64 1
  %197 = load i8, ptr %196, align 1, !tbaa !29
  %198 = zext i8 %197 to i64
  %199 = shl i64 %198, 32
  %200 = or i64 %192, %199
  %201 = load ptr, ptr %4, align 8, !tbaa !144
  %202 = getelementptr inbounds nuw %struct.lzh_stream, ptr %201, i32 0, i32 0
  %203 = load ptr, ptr %202, align 8, !tbaa !198
  %204 = getelementptr inbounds i8, ptr %203, i64 2
  %205 = load i8, ptr %204, align 1, !tbaa !29
  %206 = zext i8 %205 to i64
  %207 = shl i64 %206, 24
  %208 = or i64 %200, %207
  %209 = load ptr, ptr %4, align 8, !tbaa !144
  %210 = getelementptr inbounds nuw %struct.lzh_stream, ptr %209, i32 0, i32 0
  %211 = load ptr, ptr %210, align 8, !tbaa !198
  %212 = getelementptr inbounds i8, ptr %211, i64 3
  %213 = load i8, ptr %212, align 1, !tbaa !29
  %214 = zext i8 %213 to i64
  %215 = shl i64 %214, 16
  %216 = or i64 %208, %215
  %217 = load ptr, ptr %4, align 8, !tbaa !144
  %218 = getelementptr inbounds nuw %struct.lzh_stream, ptr %217, i32 0, i32 0
  %219 = load ptr, ptr %218, align 8, !tbaa !198
  %220 = getelementptr inbounds i8, ptr %219, i64 4
  %221 = load i8, ptr %220, align 1, !tbaa !29
  %222 = zext i8 %221 to i64
  %223 = shl i64 %222, 8
  %224 = or i64 %216, %223
  %225 = load ptr, ptr %4, align 8, !tbaa !144
  %226 = getelementptr inbounds nuw %struct.lzh_stream, ptr %225, i32 0, i32 0
  %227 = load ptr, ptr %226, align 8, !tbaa !198
  %228 = getelementptr inbounds i8, ptr %227, i64 5
  %229 = load i8, ptr %228, align 1, !tbaa !29
  %230 = zext i8 %229 to i64
  %231 = or i64 %224, %230
  %232 = load ptr, ptr %5, align 8, !tbaa !176
  %233 = getelementptr inbounds nuw %struct.lzh_br, ptr %232, i32 0, i32 0
  store i64 %231, ptr %233, align 8, !tbaa !179
  %234 = load ptr, ptr %4, align 8, !tbaa !144
  %235 = getelementptr inbounds nuw %struct.lzh_stream, ptr %234, i32 0, i32 0
  %236 = load ptr, ptr %235, align 8, !tbaa !198
  %237 = getelementptr inbounds i8, ptr %236, i64 6
  store ptr %237, ptr %235, align 8, !tbaa !198
  %238 = load ptr, ptr %4, align 8, !tbaa !144
  %239 = getelementptr inbounds nuw %struct.lzh_stream, ptr %238, i32 0, i32 1
  %240 = load i32, ptr %239, align 8, !tbaa !165
  %241 = sub nsw i32 %240, 6
  store i32 %241, ptr %239, align 8, !tbaa !165
  %242 = load ptr, ptr %5, align 8, !tbaa !176
  %243 = getelementptr inbounds nuw %struct.lzh_br, ptr %242, i32 0, i32 1
  %244 = load i32, ptr %243, align 8, !tbaa !178
  %245 = add nsw i32 %244, 48
  store i32 %245, ptr %243, align 8, !tbaa !178
  store i32 1, ptr %3, align 4
  store i32 1, ptr %8, align 4
  br label %279

246:                                              ; preds = %23
  store i32 1, ptr %3, align 4
  store i32 1, ptr %8, align 4
  br label %279

247:                                              ; preds = %23
  br label %248

248:                                              ; preds = %247
  br label %249

249:                                              ; preds = %248, %15
  %250 = load ptr, ptr %4, align 8, !tbaa !144
  %251 = getelementptr inbounds nuw %struct.lzh_stream, ptr %250, i32 0, i32 1
  %252 = load i32, ptr %251, align 8, !tbaa !165
  %253 = icmp eq i32 %252, 0
  br i1 %253, label %254, label %255

254:                                              ; preds = %249
  store i32 0, ptr %3, align 4
  store i32 1, ptr %8, align 4
  br label %279

255:                                              ; preds = %249
  %256 = load ptr, ptr %5, align 8, !tbaa !176
  %257 = getelementptr inbounds nuw %struct.lzh_br, ptr %256, i32 0, i32 0
  %258 = load i64, ptr %257, align 8, !tbaa !179
  %259 = shl i64 %258, 8
  %260 = load ptr, ptr %4, align 8, !tbaa !144
  %261 = getelementptr inbounds nuw %struct.lzh_stream, ptr %260, i32 0, i32 0
  %262 = load ptr, ptr %261, align 8, !tbaa !198
  %263 = getelementptr inbounds nuw i8, ptr %262, i32 1
  store ptr %263, ptr %261, align 8, !tbaa !198
  %264 = load i8, ptr %262, align 1, !tbaa !29
  %265 = zext i8 %264 to i64
  %266 = or i64 %259, %265
  %267 = load ptr, ptr %5, align 8, !tbaa !176
  %268 = getelementptr inbounds nuw %struct.lzh_br, ptr %267, i32 0, i32 0
  store i64 %266, ptr %268, align 8, !tbaa !179
  %269 = load ptr, ptr %4, align 8, !tbaa !144
  %270 = getelementptr inbounds nuw %struct.lzh_stream, ptr %269, i32 0, i32 1
  %271 = load i32, ptr %270, align 8, !tbaa !165
  %272 = add nsw i32 %271, -1
  store i32 %272, ptr %270, align 8, !tbaa !165
  %273 = load ptr, ptr %5, align 8, !tbaa !176
  %274 = getelementptr inbounds nuw %struct.lzh_br, ptr %273, i32 0, i32 1
  %275 = load i32, ptr %274, align 8, !tbaa !178
  %276 = add nsw i32 %275, 8
  store i32 %276, ptr %274, align 8, !tbaa !178
  %277 = load i32, ptr %6, align 4, !tbaa !11
  %278 = sub nsw i32 %277, 8
  store i32 %278, ptr %6, align 4, !tbaa !11
  store i32 0, ptr %8, align 4
  br label %279

279:                                              ; preds = %255, %254, %246, %180, %106, %25
  call void @llvm.lifetime.end.p0(i64 4, ptr %7) #11
  %280 = load i32, ptr %8, align 4
  switch i32 %280, label %282 [
    i32 0, label %281
  ]

281:                                              ; preds = %279
  br label %15

282:                                              ; preds = %279
  call void @llvm.lifetime.end.p0(i64 4, ptr %6) #11
  %283 = load i32, ptr %3, align 4
  ret i32 %283
}