; Function Attrs: nofree norecurse nosync nounwind memory(read, argmem: readwrite, inaccessiblemem: none) uwtable
define internal fastcc range(i32 0, 2) i32 @lzh_br_fillup(ptr noundef captures(none) %0, ptr noundef captures(none) %1) unnamed_addr #14 {
  %3 = getelementptr inbounds nuw i8, ptr %1, i64 8
  %4 = load i32, ptr %3, align 8, !tbaa !136
  %5 = sub i32 64, %4
  %6 = getelementptr inbounds nuw i8, ptr %0, i64 8
  %.promoted = load i32, ptr %6, align 8, !tbaa !162
  br label %7

7:                                                ; preds = %125, %2
  %8 = phi i32 [ %4, %2 ], [ %134, %125 ]
  %9 = phi i32 [ %.promoted, %2 ], [ %133, %125 ]
  %.049 = phi i32 [ %5, %2 ], [ %135, %125 ]
  %10 = ashr i32 %.049, 3
  %.not = icmp slt i32 %9, %10
  br i1 %.not, label %123, label %11

11:                                               ; preds = %7
  switch i32 %10, label %123 [
    i32 8, label %12
    i32 7, label %52
    i32 6, label %90
    i32 0, label %.loopexit
  ]

12:                                               ; preds = %11
  %13 = load ptr, ptr %0, align 8, !tbaa !172
  %14 = load i8, ptr %13, align 1, !tbaa !4
  %15 = zext i8 %14 to i64
  %16 = shl nuw i64 %15, 56
  %17 = getelementptr inbounds nuw i8, ptr %13, i64 1
  %18 = load i8, ptr %17, align 1, !tbaa !4
  %19 = zext i8 %18 to i64
  %20 = shl nuw nsw i64 %19, 48
  %21 = or disjoint i64 %20, %16
  %22 = getelementptr inbounds nuw i8, ptr %13, i64 2
  %23 = load i8, ptr %22, align 1, !tbaa !4
  %24 = zext i8 %23 to i64
  %25 = shl nuw nsw i64 %24, 40
  %26 = or disjoint i64 %21, %25
  %27 = getelementptr inbounds nuw i8, ptr %13, i64 3
  %28 = load i8, ptr %27, align 1, !tbaa !4
  %29 = zext i8 %28 to i64
  %30 = shl nuw nsw i64 %29, 32
  %31 = or disjoint i64 %26, %30
  %32 = getelementptr inbounds nuw i8, ptr %13, i64 4
  %33 = load i8, ptr %32, align 1, !tbaa !4
  %34 = zext i8 %33 to i64
  %35 = shl nuw nsw i64 %34, 24
  %36 = or disjoint i64 %31, %35
  %37 = getelementptr inbounds nuw i8, ptr %13, i64 5
  %38 = load i8, ptr %37, align 1, !tbaa !4
  %39 = zext i8 %38 to i64
  %40 = shl nuw nsw i64 %39, 16
  %41 = or disjoint i64 %36, %40
  %42 = getelementptr inbounds nuw i8, ptr %13, i64 6
  %43 = load i8, ptr %42, align 1, !tbaa !4
  %44 = zext i8 %43 to i64
  %45 = shl nuw nsw i64 %44, 8
  %46 = or i64 %41, %45
  %47 = getelementptr inbounds nuw i8, ptr %13, i64 7
  %48 = load i8, ptr %47, align 1, !tbaa !4
  %49 = zext i8 %48 to i64
  %50 = or i64 %46, %49
  store i64 %50, ptr %1, align 8, !tbaa !141
  %51 = getelementptr inbounds nuw i8, ptr %13, i64 8
  br label %.loopexit.sink.split

52:                                               ; preds = %11
  %53 = load i64, ptr %1, align 8, !tbaa !141
  %54 = shl i64 %53, 56
  %55 = load ptr, ptr %0, align 8, !tbaa !172
  %56 = load i8, ptr %55, align 1, !tbaa !4
  %57 = zext i8 %56 to i64
  %58 = shl nuw nsw i64 %57, 48
  %59 = or disjoint i64 %58, %54
  %60 = getelementptr inbounds nuw i8, ptr %55, i64 1
  %61 = load i8, ptr %60, align 1, !tbaa !4
  %62 = zext i8 %61 to i64
  %63 = shl nuw nsw i64 %62, 40
  %64 = or disjoint i64 %59, %63
  %65 = getelementptr inbounds nuw i8, ptr %55, i64 2
  %66 = load i8, ptr %65, align 1, !tbaa !4
  %67 = zext i8 %66 to i64
  %68 = shl nuw nsw i64 %67, 32
  %69 = or disjoint i64 %64, %68
  %70 = getelementptr inbounds nuw i8, ptr %55, i64 3
  %71 = load i8, ptr %70, align 1, !tbaa !4
  %72 = zext i8 %71 to i64
  %73 = shl nuw nsw i64 %72, 24
  %74 = or disjoint i64 %69, %73
  %75 = getelementptr inbounds nuw i8, ptr %55, i64 4
  %76 = load i8, ptr %75, align 1, !tbaa !4
  %77 = zext i8 %76 to i64
  %78 = shl nuw nsw i64 %77, 16
  %79 = or disjoint i64 %74, %78
  %80 = getelementptr inbounds nuw i8, ptr %55, i64 5
  %81 = load i8, ptr %80, align 1, !tbaa !4
  %82 = zext i8 %81 to i64
  %83 = shl nuw nsw i64 %82, 8
  %84 = or i64 %79, %83
  %85 = getelementptr inbounds nuw i8, ptr %55, i64 6
  %86 = load i8, ptr %85, align 1, !tbaa !4
  %87 = zext i8 %86 to i64
  %88 = or i64 %84, %87
  store i64 %88, ptr %1, align 8, !tbaa !141
  %89 = getelementptr inbounds nuw i8, ptr %55, i64 7
  br label %.loopexit.sink.split

90:                                               ; preds = %11
  %91 = load i64, ptr %1, align 8, !tbaa !141
  %92 = shl i64 %91, 48
  %93 = load ptr, ptr %0, align 8, !tbaa !172
  %94 = load i8, ptr %93, align 1, !tbaa !4
  %95 = zext i8 %94 to i64
  %96 = shl nuw nsw i64 %95, 40
  %97 = or disjoint i64 %96, %92
  %98 = getelementptr inbounds nuw i8, ptr %93, i64 1
  %99 = load i8, ptr %98, align 1, !tbaa !4
  %100 = zext i8 %99 to i64
  %101 = shl nuw nsw i64 %100, 32
  %102 = or disjoint i64 %97, %101
  %103 = getelementptr inbounds nuw i8, ptr %93, i64 2
  %104 = load i8, ptr %103, align 1, !tbaa !4
  %105 = zext i8 %104 to i64
  %106 = shl nuw nsw i64 %105, 24
  %107 = or disjoint i64 %102, %106
  %108 = getelementptr inbounds nuw i8, ptr %93, i64 3
  %109 = load i8, ptr %108, align 1, !tbaa !4
  %110 = zext i8 %109 to i64
  %111 = shl nuw nsw i64 %110, 16
  %112 = or disjoint i64 %107, %111
  %113 = getelementptr inbounds nuw i8, ptr %93, i64 4
  %114 = load i8, ptr %113, align 1, !tbaa !4
  %115 = zext i8 %114 to i64
  %116 = shl nuw nsw i64 %115, 8
  %117 = or disjoint i64 %112, %116
  %118 = getelementptr inbounds nuw i8, ptr %93, i64 5
  %119 = load i8, ptr %118, align 1, !tbaa !4
  %120 = zext i8 %119 to i64
  %121 = or i64 %117, %120
  store i64 %121, ptr %1, align 8, !tbaa !141
  %122 = getelementptr inbounds nuw i8, ptr %93, i64 6
  br label %.loopexit.sink.split

123:                                              ; preds = %11, %7
  %124 = icmp eq i32 %9, 0
  br i1 %124, label %.loopexit, label %125

125:                                              ; preds = %123
  %126 = load i64, ptr %1, align 8, !tbaa !141
  %127 = shl i64 %126, 8
  %128 = load ptr, ptr %0, align 8, !tbaa !172
  %129 = getelementptr inbounds nuw i8, ptr %128, i64 1
  store ptr %129, ptr %0, align 8, !tbaa !172
  %130 = load i8, ptr %128, align 1, !tbaa !4
  %131 = zext i8 %130 to i64
  %132 = or disjoint i64 %127, %131
  store i64 %132, ptr %1, align 8, !tbaa !141
  %133 = add nsw i32 %9, -1
  store i32 %133, ptr %6, align 8, !tbaa !162
  %134 = add nsw i32 %8, 8
  store i32 %134, ptr %3, align 8, !tbaa !136
  %135 = add nsw i32 %.049, -8
  br label %7

.loopexit.sink.split:                             ; preds = %12, %52, %90
  %.sink = phi ptr [ %51, %12 ], [ %89, %52 ], [ %122, %90 ]
  %.sink81 = phi i32 [ -8, %12 ], [ -7, %52 ], [ -6, %90 ]
  %.sink80 = phi i32 [ 64, %12 ], [ 56, %52 ], [ 48, %90 ]
  store ptr %.sink, ptr %0, align 8, !tbaa !172
  %136 = add nsw i32 %9, %.sink81
  store i32 %136, ptr %6, align 8, !tbaa !162
  %137 = add nsw i32 %8, %.sink80
  store i32 %137, ptr %3, align 8, !tbaa !136
  br label %.loopexit

.loopexit:                                        ; preds = %11, %123, %.loopexit.sink.split
  %.1.ph = phi i32 [ 1, %.loopexit.sink.split ], [ 1, %11 ], [ 0, %123 ]
  ret i32 %.1.ph
}